target datalayout = "e-m:e-p270:32:32-p271:32:32-p272:64:64-i64:64-i128:128-f80:128-n8:16:32:64-S128"
target triple = "x86_64-pc-linux-gnu"

%struct.b2Vec2 = type { float, float }
%struct.b2BodyState = type { %struct.b2Vec2, float, i32, %struct.b2Vec2, %struct.b2Rot }
%struct.b2Rot = type { float, float }
%struct.b2JointSim = type { i32, i32, i32, i32, %struct.b2Vec2, %struct.b2Vec2, float, float, float, float, %union.anon }
%union.anon = type { %struct.b2PrismaticJoint }
%struct.b2PrismaticJoint = type { %struct.b2Vec2, %struct.b2Vec2, float, float, float, float, float, float, float, float, float, float, float, i32, i32, %struct.b2Vec2, %struct.b2Vec2, %struct.b2Vec2, %struct.b2Vec2, float, float, %struct.b2Softness, i8, i8, i8 }
%struct.b2Softness = type { float, float, float }
%struct.b2WeldJoint = type { float, float, float, float, float, %struct.b2Softness, %struct.b2Softness, %struct.b2Vec2, float, i32, i32, %struct.b2Vec2, %struct.b2Vec2, %struct.b2Vec2, float, float }
%struct.b2AtomicInt = type { i32 }
%struct.b2StepContext = type { float, float, float, float, i32, %struct.b2Softness, %struct.b2Softness, %struct.b2Softness, float, float, ptr, ptr, ptr, ptr, ptr, i32, ptr, %struct.b2AtomicInt, ptr, ptr, ptr, i32, i32, ptr, i32, i8, [64 x i8], %struct.b2AtomicU32, [64 x i8] }
%struct.b2AtomicU32 = type { i32 }

@__const.b2WarmStartWeldJoint.dummyState = private unnamed_addr constant %struct.b2BodyState { %struct.b2Vec2 zeroinitializer, float 0.000000e+00, i32 0, %struct.b2Vec2 zeroinitializer, %struct.b2Rot { float 1.000000e+00, float 0.000000e+00 } }, align 4

; Function Attrs: inlinehint nounwind uwtable
define internal <2 x float> @b2MulAdd(<2 x float> %0, float noundef %1, <2 x float> %2) #5 {
  %4 = alloca %struct.b2Vec2, align 4
  %5 = alloca %struct.b2Vec2, align 4
  %6 = alloca %struct.b2Vec2, align 4
  %7 = alloca float, align 4
  store <2 x float> %0, ptr %5, align 4
  store <2 x float> %2, ptr %6, align 4
  store float %1, ptr %7, align 4, !tbaa !9
  %8 = getelementptr inbounds nuw %struct.b2Vec2, ptr %4, i32 0, i32 0
  %9 = getelementptr inbounds nuw %struct.b2Vec2, ptr %5, i32 0, i32 0
  %10 = load float, ptr %9, align 4, !tbaa !65
  %11 = load float, ptr %7, align 4, !tbaa !9
  %12 = getelementptr inbounds nuw %struct.b2Vec2, ptr %6, i32 0, i32 0
  %13 = load float, ptr %12, align 4, !tbaa !65
  %14 = fmul float %11, %13
  %15 = fadd float %10, %14
  store float %15, ptr %8, align 4, !tbaa !65
  %16 = getelementptr inbounds nuw %struct.b2Vec2, ptr %4, i32 0, i32 1
  %17 = getelementptr inbounds nuw %struct.b2Vec2, ptr %5, i32 0, i32 1
  %18 = load float, ptr %17, align 4, !tbaa !66
  %19 = load float, ptr %7, align 4, !tbaa !9
  %20 = getelementptr inbounds nuw %struct.b2Vec2, ptr %6, i32 0, i32 1
  %21 = load float, ptr %20, align 4, !tbaa !66
  %22 = fmul float %19, %21
  %23 = fadd float %18, %22
  store float %23, ptr %16, align 4, !tbaa !66
  %24 = load <2 x float>, ptr %4, align 4
  ret <2 x float> %24
}

; Function Attrs: inlinehint nounwind uwtable
define internal float @b2Cross(<2 x float> %0, <2 x float> %1) #5 {
  %3 = alloca %struct.b2Vec2, align 4
  %4 = alloca %struct.b2Vec2, align 4
  store <2 x float> %0, ptr %3, align 4
  store <2 x float> %1, ptr %4, align 4
  %5 = getelementptr inbounds nuw %struct.b2Vec2, ptr %3, i32 0, i32 0
  %6 = load float, ptr %5, align 4, !tbaa !65
  %7 = getelementptr inbounds nuw %struct.b2Vec2, ptr %4, i32 0, i32 1
  %8 = load float, ptr %7, align 4, !tbaa !66
  %9 = fmul float %6, %8
  %10 = getelementptr inbounds nuw %struct.b2Vec2, ptr %3, i32 0, i32 1
  %11 = load float, ptr %10, align 4, !tbaa !66
  %12 = getelementptr inbounds nuw %struct.b2Vec2, ptr %4, i32 0, i32 0
  %13 = load float, ptr %12, align 4, !tbaa !65
  %14 = fmul float %11, %13
  %15 = fsub float %9, %14
  ret float %15
}

; Function Attrs: inlinehint nounwind uwtable
define internal <2 x float> @b2MulSub(<2 x float> %0, float noundef %1, <2 x float> %2) #5 {
  %4 = alloca %struct.b2Vec2, align 4
  %5 = alloca %struct.b2Vec2, align 4
  %6 = alloca %struct.b2Vec2, align 4
  %7 = alloca float, align 4
  store <2 x float> %0, ptr %5, align 4
  store <2 x float> %2, ptr %6, align 4
  store float %1, ptr %7, align 4, !tbaa !9
  %8 = getelementptr inbounds nuw %struct.b2Vec2, ptr %4, i32 0, i32 0
  %9 = getelementptr inbounds nuw %struct.b2Vec2, ptr %5, i32 0, i32 0
  %10 = load float, ptr %9, align 4, !tbaa !65
  %11 = load float, ptr %7, align 4, !tbaa !9
  %12 = getelementptr inbounds nuw %struct.b2Vec2, ptr %6, i32 0, i32 0
  %13 = load float, ptr %12, align 4, !tbaa !65
  %14 = fmul float %11, %13
  %15 = fsub float %10, %14
  store float %15, ptr %8, align 4, !tbaa !65
  %16 = getelementptr inbounds nuw %struct.b2Vec2, ptr %4, i32 0, i32 1
  %17 = getelementptr inbounds nuw %struct.b2Vec2, ptr %5, i32 0, i32 1
  %18 = load float, ptr %17, align 4, !tbaa !66
  %19 = load float, ptr %7, align 4, !tbaa !9
  %20 = getelementptr inbounds nuw %struct.b2Vec2, ptr %6, i32 0, i32 1
  %21 = load float, ptr %20, align 4, !tbaa !66
  %22 = fmul float %19, %21
  %23 = fsub float %18, %22
  store float %23, ptr %16, align 4, !tbaa !66
  %24 = load <2 x float>, ptr %4, align 4
  ret <2 x float> %24
}

; Function Attrs: inlinehint nounwind uwtable
define internal <2 x float> @b2RotateVector(<2 x float> %0, <2 x float> %1) #5 {
  %3 = alloca %struct.b2Vec2, align 4
  %4 = alloca %struct.b2Rot, align 4
  %5 = alloca %struct.b2Vec2, align 4
  store <2 x float> %0, ptr %4, align 4
  store <2 x float> %1, ptr %5, align 4
  %6 = getelementptr inbounds nuw %struct.b2Vec2, ptr %3, i32 0, i32 0
  %7 = getelementptr inbounds nuw %struct.b2Rot, ptr %4, i32 0, i32 0
  %8 = load float, ptr %7, align 4, !tbaa !123
  %9 = getelementptr inbounds nuw %struct.b2Vec2, ptr %5, i32 0, i32 0
  %10 = load float, ptr %9, align 4, !tbaa !65
  %11 = fmul float %8, %10
  %12 = getelementptr inbounds nuw %struct.b2Rot, ptr %4, i32 0, i32 1
  %13 = load float, ptr %12, align 4, !tbaa !124
  %14 = getelementptr inbounds nuw %struct.b2Vec2, ptr %5, i32 0, i32 1
  %15 = load float, ptr %14, align 4, !tbaa !66
  %16 = fmul float %13, %15
  %17 = fsub float %11, %16
  store float %17, ptr %6, align 4, !tbaa !65
  %18 = getelementptr inbounds nuw %struct.b2Vec2, ptr %3, i32 0, i32 1
  %19 = getelementptr inbounds nuw %struct.b2Rot, ptr %4, i32 0, i32 1
  %20 = load float, ptr %19, align 4, !tbaa !124
  %21 = getelementptr inbounds nuw %struct.b2Vec2, ptr %5, i32 0, i32 0
  %22 = load float, ptr %21, align 4, !tbaa !65
  %23 = fmul float %20, %22
  %24 = getelementptr inbounds nuw %struct.b2Rot, ptr %4, i32 0, i32 0
  %25 = load float, ptr %24, align 4, !tbaa !123
  %26 = getelementptr inbounds nuw %struct.b2Vec2, ptr %5, i32 0, i32 1
  %27 = load float, ptr %26, align 4, !tbaa !66
  %28 = fmul float %25, %27
  %29 = fadd float %23, %28
  store float %29, ptr %18, align 4, !tbaa !66
  %30 = load <2 x float>, ptr %3, align 4
  ret <2 x float> %30
}

; Function Attrs: nounwind uwtable
define hidden void @b2WarmStartWeldJoint(ptr noundef %0, ptr noundef %1) #4 {
  %3 = alloca ptr, align 8
  %4 = alloca ptr, align 8
  %5 = alloca float, align 4
  %6 = alloca float, align 4
  %7 = alloca float, align 4
  %8 = alloca float, align 4
  %9 = alloca %struct.b2BodyState, align 4
  %10 = alloca ptr, align 8
  %11 = alloca ptr, align 8
  %12 = alloca ptr, align 8
  %13 = alloca %struct.b2Vec2, align 4
  %14 = alloca %struct.b2Vec2, align 4
  %15 = alloca %struct.b2Vec2, align 4
  %16 = alloca %struct.b2Vec2, align 4
  store ptr %0, ptr %3, align 8, !tbaa !3
  store ptr %1, ptr %4, align 8, !tbaa !67
  call void @llvm.lifetime.start.p0(i64 4, ptr %5) #8
  %17 = load ptr, ptr %3, align 8, !tbaa !3
  %18 = getelementptr inbounds nuw %struct.b2JointSim, ptr %17, i32 0, i32 6
  %19 = load float, ptr %18, align 4, !tbaa !95
  store float %19, ptr %5, align 4, !tbaa !9
  call void @llvm.lifetime.start.p0(i64 4, ptr %6) #8
  %20 = load ptr, ptr %3, align 8, !tbaa !3
  %21 = getelementptr inbounds nuw %struct.b2JointSim, ptr %20, i32 0, i32 7
  %22 = load float, ptr %21, align 4, !tbaa !96
  store float %22, ptr %6, align 4, !tbaa !9
  call void @llvm.lifetime.start.p0(i64 4, ptr %7) #8
  %23 = load ptr, ptr %3, align 8, !tbaa !3
  %24 = getelementptr inbounds nuw %struct.b2JointSim, ptr %23, i32 0, i32 8
  %25 = load float, ptr %24, align 4, !tbaa !97
  store float %25, ptr %7, align 4, !tbaa !9
  call void @llvm.lifetime.start.p0(i64 4, ptr %8) #8
  %26 = load ptr, ptr %3, align 8, !tbaa !3
  %27 = getelementptr inbounds nuw %struct.b2JointSim, ptr %26, i32 0, i32 9
  %28 = load float, ptr %27, align 4, !tbaa !98
  store float %28, ptr %8, align 4, !tbaa !9
  call void @llvm.lifetime.start.p0(i64 32, ptr %9) #8
  call void @llvm.memcpy.p0.p0.i64(ptr align 4 %9, ptr align 4 @__const.b2WarmStartWeldJoint.dummyState, i64 32, i1 false)
  call void @llvm.lifetime.start.p0(i64 8, ptr %10) #8
  %29 = load ptr, ptr %3, align 8, !tbaa !3
  %30 = getelementptr inbounds nuw %struct.b2JointSim, ptr %29, i32 0, i32 10
  store ptr %30, ptr %10, align 8, !tbaa !99
  call void @llvm.lifetime.start.p0(i64 8, ptr %11) #8
  %31 = load ptr, ptr %10, align 8, !tbaa !99
  %32 = getelementptr inbounds nuw %struct.b2WeldJoint, ptr %31, i32 0, i32 9
  %33 = load i32, ptr %32, align 4, !tbaa !101
  %34 = icmp eq i32 %33, -1
  br i1 %34, label %35, label %36

35:                                               ; preds = %2
  br label %45

36:                                               ; preds = %2
  %37 = load ptr, ptr %4, align 8, !tbaa !67
  %38 = getelementptr inbounds nuw %struct.b2StepContext, ptr %37, i32 0, i32 12
  %39 = load ptr, ptr %38, align 8, !tbaa !128
  %40 = load ptr, ptr %10, align 8, !tbaa !99
  %41 = getelementptr inbounds nuw %struct.b2WeldJoint, ptr %40, i32 0, i32 9
  %42 = load i32, ptr %41, align 4, !tbaa !101
  %43 = sext i32 %42 to i64
  %44 = getelementptr inbounds %struct.b2BodyState, ptr %39, i64 %43
  br label %45

45:                                               ; preds = %36, %35
  %46 = phi ptr [ %9, %35 ], [ %44, %36 ]
  store ptr %46, ptr %11, align 8, !tbaa !129
  call void @llvm.lifetime.start.p0(i64 8, ptr %12) #8
  %47 = load ptr, ptr %10, align 8, !tbaa !99
  %48 = getelementptr inbounds nuw %struct.b2WeldJoint, ptr %47, i32 0, i32 10
  %49 = load i32, ptr %48, align 4, !tbaa !103
  %50 = icmp eq i32 %49, -1
  br i1 %50, label %51, label %52

51:                                               ; preds = %45
  br label %61

52:                                               ; preds = %45
  %53 = load ptr, ptr %4, align 8, !tbaa !67
  %54 = getelementptr inbounds nuw %struct.b2StepContext, ptr %53, i32 0, i32 12
  %55 = load ptr, ptr %54, align 8, !tbaa !128
  %56 = load ptr, ptr %10, align 8, !tbaa !99
  %57 = getelementptr inbounds nuw %struct.b2WeldJoint, ptr %56, i32 0, i32 10
  %58 = load i32, ptr %57, align 4, !tbaa !103
  %59 = sext i32 %58 to i64
  %60 = getelementptr inbounds %struct.b2BodyState, ptr %55, i64 %59
  br label %61

61:                                               ; preds = %52, %51
  %62 = phi ptr [ %9, %51 ], [ %60, %52 ]
  store ptr %62, ptr %12, align 8, !tbaa !129
  call void @llvm.lifetime.start.p0(i64 8, ptr %13) #8
  %63 = load ptr, ptr %11, align 8, !tbaa !129
  %64 = getelementptr inbounds nuw %struct.b2BodyState, ptr %63, i32 0, i32 4
  %65 = load ptr, ptr %10, align 8, !tbaa !99
  %66 = getelementptr inbounds nuw %struct.b2WeldJoint, ptr %65, i32 0, i32 11
  %67 = load <2 x float>, ptr %64, align 4
  %68 = load <2 x float>, ptr %66, align 4
  %69 = call <2 x float> @b2RotateVector(<2 x float> %67, <2 x float> %68)
  store <2 x float> %69, ptr %13, align 4
  call void @llvm.lifetime.start.p0(i64 8, ptr %14) #8
  %70 = load ptr, ptr %12, align 8, !tbaa !129
  %71 = getelementptr inbounds nuw %struct.b2BodyState, ptr %70, i32 0, i32 4
  %72 = load ptr, ptr %10, align 8, !tbaa !99
  %73 = getelementptr inbounds nuw %struct.b2WeldJoint, ptr %72, i32 0, i32 12
  %74 = load <2 x float>, ptr %71, align 4
  %75 = load <2 x float>, ptr %73, align 4
  %76 = call <2 x float> @b2RotateVector(<2 x float> %74, <2 x float> %75)
  store <2 x float> %76, ptr %14, align 4
  %77 = load ptr, ptr %11, align 8, !tbaa !129
  %78 = getelementptr inbounds nuw %struct.b2BodyState, ptr %77, i32 0, i32 0
  call void @llvm.lifetime.start.p0(i64 8, ptr %15) #8
  %79 = load ptr, ptr %11, align 8, !tbaa !129
  %80 = getelementptr inbounds nuw %struct.b2BodyState, ptr %79, i32 0, i32 0
  %81 = load float, ptr %5, align 4, !tbaa !9
  %82 = load ptr, ptr %10, align 8, !tbaa !99
  %83 = getelementptr inbounds nuw %struct.b2WeldJoint, ptr %82, i32 0, i32 7
  %84 = load <2 x float>, ptr %80, align 4
  %85 = load <2 x float>, ptr %83, align 4
  %86 = call <2 x float> @b2MulSub(<2 x float> %84, float noundef %81, <2 x float> %85)
  store <2 x float> %86, ptr %15, align 4
  call void @llvm.memcpy.p0.p0.i64(ptr align 4 %78, ptr align 4 %15, i64 8, i1 false), !tbaa.struct !104
  call void @llvm.lifetime.end.p0(i64 8, ptr %15) #8
  %87 = load float, ptr %7, align 4, !tbaa !9
  %88 = load ptr, ptr %10, align 8, !tbaa !99
  %89 = getelementptr inbounds nuw %struct.b2WeldJoint, ptr %88, i32 0, i32 7
  %90 = load <2 x float>, ptr %13, align 4
  %91 = load <2 x float>, ptr %89, align 4
  %92 = call float @b2Cross(<2 x float> %90, <2 x float> %91)
  %93 = load ptr, ptr %10, align 8, !tbaa !99
  %94 = getelementptr inbounds nuw %struct.b2WeldJoint, ptr %93, i32 0, i32 8
  %95 = load float, ptr %94, align 4, !tbaa !117
  %96 = fadd float %92, %95
  %97 = fmul float %87, %96
  %98 = load ptr, ptr %11, align 8, !tbaa !129
  %99 = getelementptr inbounds nuw %struct.b2BodyState, ptr %98, i32 0, i32 1
  %100 = load float, ptr %99, align 4, !tbaa !130
  %101 = fsub float %100, %97
  store float %101, ptr %99, align 4, !tbaa !130
  %102 = load ptr, ptr %12, align 8, !tbaa !129
  %103 = getelementptr inbounds nuw %struct.b2BodyState, ptr %102, i32 0, i32 0
  call void @llvm.lifetime.start.p0(i64 8, ptr %16) #8
  %104 = load ptr, ptr %12, align 8, !tbaa !129
  %105 = getelementptr inbounds nuw %struct.b2BodyState, ptr %104, i32 0, i32 0
  %106 = load float, ptr %6, align 4, !tbaa !9
  %107 = load ptr, ptr %10, align 8, !tbaa !99
  %108 = getelementptr inbounds nuw %struct.b2WeldJoint, ptr %107, i32 0, i32 7
  %109 = load <2 x float>, ptr %105, align 4
  %110 = load <2 x float>, ptr %108, align 4
  %111 = call <2 x float> @b2MulAdd(<2 x float> %109, float noundef %106, <2 x float> %110)
  store <2 x float> %111, ptr %16, align 4
  call void @llvm.memcpy.p0.p0.i64(ptr align 4 %103, ptr align 4 %16, i64 8, i1 false), !tbaa.struct !104
  call void @llvm.lifetime.end.p0(i64 8, ptr %16) #8
  %112 = load float, ptr %8, align 4, !tbaa !9
  %113 = load ptr, ptr %10, align 8, !tbaa !99
  %114 = getelementptr inbounds nuw %struct.b2WeldJoint, ptr %113, i32 0, i32 7
  %115 = load <2 x float>, ptr %14, align 4
  %116 = load <2 x float>, ptr %114, align 4
  %117 = call float @b2Cross(<2 x float> %115, <2 x float> %116)
  %118 = load ptr, ptr %10, align 8, !tbaa !99
  %119 = getelementptr inbounds nuw %struct.b2WeldJoint, ptr %118, i32 0, i32 8
  %120 = load float, ptr %119, align 4, !tbaa !117
  %121 = fadd float %117, %120
  %122 = fmul float %112, %121
  %123 = load ptr, ptr %12, align 8, !tbaa !129
  %124 = getelementptr inbounds nuw %struct.b2BodyState, ptr %123, i32 0, i32 1
  %125 = load float, ptr %124, align 4, !tbaa !130
  %126 = fadd float %125, %122
  store float %126, ptr %124, align 4, !tbaa !130
  call void @llvm.lifetime.end.p0(i64 8, ptr %14) #8
  call void @llvm.lifetime.end.p0(i64 8, ptr %13) #8
  call void @llvm.lifetime.end.p0(i64 8, ptr %12) #8
  call void @llvm.lifetime.end.p0(i64 8, ptr %11) #8
  call void @llvm.lifetime.end.p0(i64 8, ptr %10) #8
  call void @llvm.lifetime.end.p0(i64 32, ptr %9) #8
  call void @llvm.lifetime.end.p0(i64 4, ptr %8) #8
  call void @llvm.lifetime.end.p0(i64 4, ptr %7) #8
  call void @llvm.lifetime.end.p0(i64 4, ptr %6) #8
  call void @llvm.lifetime.end.p0(i64 4, ptr %5) #8
  ret void
}