; Function Attrs: mustprogress nofree norecurse nosync nounwind willreturn memory(readwrite, inaccessiblemem: none) uwtable
define hidden void @b2WarmStartWeldJoint(ptr noundef readonly captures(none) %0, ptr noundef readonly captures(none) %1) local_unnamed_addr #7 {
  %3 = alloca %struct.b2BodyState, align 4
  %4 = getelementptr inbounds nuw i8, ptr %0, i64 32
  %5 = load float, ptr %4, align 4, !tbaa !87
  %6 = getelementptr inbounds nuw i8, ptr %0, i64 36
  %7 = load float, ptr %6, align 4, !tbaa !88
  %8 = getelementptr inbounds nuw i8, ptr %0, i64 40
  %9 = load float, ptr %8, align 4, !tbaa !89
  %10 = getelementptr inbounds nuw i8, ptr %0, i64 44
  %11 = load float, ptr %10, align 4, !tbaa !90
  call void @llvm.lifetime.start.p0(i64 32, ptr nonnull %3) #8
  call void @llvm.memcpy.p0.p0.i64(ptr noundef nonnull align 4 dereferenceable(32) %3, ptr noundef nonnull align 4 dereferenceable(32) @__const.b2SolveWeldJoint.dummyState, i64 32, i1 false)
  %12 = getelementptr inbounds nuw i8, ptr %0, i64 104
  %13 = load i32, ptr %12, align 4, !tbaa !91
  %14 = icmp eq i32 %13, -1
  br i1 %14, label %20, label %15

15:                                               ; preds = %2
  %16 = getelementptr inbounds nuw i8, ptr %1, i64 80
  %17 = load ptr, ptr %16, align 8, !tbaa !108
  %18 = sext i32 %13 to i64
  %19 = getelementptr inbounds %struct.b2BodyState, ptr %17, i64 %18
  br label %20

20:                                               ; preds = %2, %15
  %21 = phi ptr [ %19, %15 ], [ %3, %2 ]
  %22 = getelementptr inbounds nuw i8, ptr %0, i64 108
  %23 = load i32, ptr %22, align 4, !tbaa !93
  %24 = icmp eq i32 %23, -1
  br i1 %24, label %30, label %25

25:                                               ; preds = %20
  %26 = getelementptr inbounds nuw i8, ptr %1, i64 80
  %27 = load ptr, ptr %26, align 8, !tbaa !108
  %28 = sext i32 %23 to i64
  %29 = getelementptr inbounds %struct.b2BodyState, ptr %27, i64 %28
  br label %30

30:                                               ; preds = %20, %25
  %31 = phi ptr [ %29, %25 ], [ %3, %20 ]
  %32 = getelementptr inbounds nuw i8, ptr %21, i64 24
  %33 = getelementptr inbounds nuw i8, ptr %0, i64 112
  %34 = load <2 x float>, ptr %32, align 4
  %35 = load <2 x float>, ptr %33, align 4
  %.sroa.05.0.vec.extract.i = extractelement <2 x float> %34, i64 0
  %.sroa.0.0.vec.extract.i = extractelement <2 x float> %35, i64 0
  %36 = fmul <2 x float> %34, %35
  %37 = extractelement <2 x float> %36, i64 0
  %.sroa.05.4.vec.extract.i = extractelement <2 x float> %34, i64 1
  %.sroa.0.4.vec.extract.i = extractelement <2 x float> %35, i64 1
  %38 = fmul float %.sroa.05.4.vec.extract.i, %.sroa.0.4.vec.extract.i
  %39 = fsub float %37, %38
  %40 = fmul float %.sroa.05.4.vec.extract.i, %.sroa.0.0.vec.extract.i
  %41 = fmul float %.sroa.05.0.vec.extract.i, %.sroa.0.4.vec.extract.i
  %42 = fadd float %40, %41
  %43 = getelementptr inbounds nuw i8, ptr %31, i64 24
  %44 = getelementptr inbounds nuw i8, ptr %0, i64 120
  %45 = load <2 x float>, ptr %43, align 4
  %46 = load <2 x float>, ptr %44, align 4
  %.sroa.05.0.vec.extract.i35 = extractelement <2 x float> %45, i64 0
  %.sroa.0.0.vec.extract.i36 = extractelement <2 x float> %46, i64 0
  %47 = fmul <2 x float> %45, %46
  %48 = extractelement <2 x float> %47, i64 0
  %.sroa.05.4.vec.extract.i37 = extractelement <2 x float> %45, i64 1
  %.sroa.0.4.vec.extract.i38 = extractelement <2 x float> %46, i64 1
  %49 = fmul float %.sroa.05.4.vec.extract.i37, %.sroa.0.4.vec.extract.i38
  %50 = fsub float %48, %49
  %51 = fmul float %.sroa.05.4.vec.extract.i37, %.sroa.0.0.vec.extract.i36
  %52 = fmul float %.sroa.05.0.vec.extract.i35, %.sroa.0.4.vec.extract.i38
  %53 = fadd float %51, %52
  %54 = getelementptr inbounds nuw i8, ptr %0, i64 92
  %55 = load <2 x float>, ptr %21, align 4
  %56 = load <2 x float>, ptr %54, align 4
  %.sroa.02.0.vec.extract.i = extractelement <2 x float> %55, i64 0
  %.sroa.0.0.vec.extract.i41 = extractelement <2 x float> %56, i64 0
  %57 = fmul float %5, %.sroa.0.0.vec.extract.i41
  %58 = fsub float %.sroa.02.0.vec.extract.i, %57
  %.sroa.03.0.vec.insert.i = insertelement <2 x float> poison, float %58, i64 0
  %.sroa.02.4.vec.extract.i = extractelement <2 x float> %55, i64 1
  %.sroa.0.4.vec.extract.i42 = extractelement <2 x float> %56, i64 1
  %59 = fmul float %5, %.sroa.0.4.vec.extract.i42
  %60 = fsub float %.sroa.02.4.vec.extract.i, %59
  %.sroa.03.4.vec.insert.i = insertelement <2 x float> %.sroa.03.0.vec.insert.i, float %60, i64 1
  store <2 x float> %.sroa.03.4.vec.insert.i, ptr %21, align 4
  %61 = load <2 x float>, ptr %54, align 4
  %.sroa.0.4.vec.extract.i43 = extractelement <2 x float> %61, i64 1
  %62 = fmul float %39, %.sroa.0.4.vec.extract.i43
  %.sroa.0.0.vec.extract.i44 = extractelement <2 x float> %61, i64 0
  %63 = fmul float %42, %.sroa.0.0.vec.extract.i44
  %64 = fsub float %62, %63
  %65 = getelementptr inbounds nuw i8, ptr %0, i64 100
  %66 = load float, ptr %65, align 4, !tbaa !107
  %67 = fadd float %66, %64
  %68 = fmul float %9, %67
  %69 = getelementptr inbounds nuw i8, ptr %21, i64 8
  %70 = load float, ptr %69, align 4, !tbaa !109
  %71 = fsub float %70, %68
  store float %71, ptr %69, align 4, !tbaa !109
  %72 = load <2 x float>, ptr %31, align 4
  %73 = load <2 x float>, ptr %54, align 4
  %.sroa.02.0.vec.extract.i45 = extractelement <2 x float> %72, i64 0
  %.sroa.0.0.vec.extract.i46 = extractelement <2 x float> %73, i64 0
  %74 = fmul float %7, %.sroa.0.0.vec.extract.i46
  %75 = fadd float %.sroa.02.0.vec.extract.i45, %74
  %.sroa.03.0.vec.insert.i47 = insertelement <2 x float> poison, float %75, i64 0
  %.sroa.02.4.vec.extract.i48 = extractelement <2 x float> %72, i64 1
  %.sroa.0.4.vec.extract.i49 = extractelement <2 x float> %73, i64 1
  %76 = fmul float %7, %.sroa.0.4.vec.extract.i49
  %77 = fadd float %.sroa.02.4.vec.extract.i48, %76
  %.sroa.03.4.vec.insert.i50 = insertelement <2 x float> %.sroa.03.0.vec.insert.i47, float %77, i64 1
  store <2 x float> %.sroa.03.4.vec.insert.i50, ptr %31, align 4
  %78 = load <2 x float>, ptr %54, align 4
  %.sroa.0.4.vec.extract.i51 = extractelement <2 x float> %78, i64 1
  %79 = fmul float %50, %.sroa.0.4.vec.extract.i51
  %.sroa.0.0.vec.extract.i52 = extractelement <2 x float> %78, i64 0
  %80 = fmul float %53, %.sroa.0.0.vec.extract.i52
  %81 = fsub float %79, %80
  %82 = load float, ptr %65, align 4, !tbaa !107
  %83 = fadd float %82, %81
  %84 = fmul float %11, %83
  %85 = getelementptr inbounds nuw i8, ptr %31, i64 8
  %86 = load float, ptr %85, align 4, !tbaa !109
  %87 = fadd float %86, %84
  store float %87, ptr %85, align 4, !tbaa !109
  call void @llvm.lifetime.end.p0(i64 32, ptr nonnull %3) #8
  ret void
}